target datalayout = "e-m:e-p270:32:32-p271:32:32-p272:64:64-i64:64-i128:128-f80:128-n8:16:32:64-S128"
target triple = "x86_64-pc-linux-gnu"

%struct._archiveHandle = type { %struct.Archive, i32, ptr, ptr, i64, i64, i32, %struct.sqlparseInfo, i64, i32, ptr, i64, i64, i64, ptr, ptr, ptr, ptr, ptr, ptr, ptr, ptr, ptr, ptr, ptr, ptr, ptr, ptr, ptr, ptr, ptr, ptr, ptr, ptr, ptr, ptr, ptr, ptr, ptr, ptr, ptr, ptr, ptr, ptr, i32, i32, i8, i32, i8, i32, ptr, ptr, ptr, ptr, i32, i32, ptr, ptr, ptr, %struct.pg_compress_specification, i8, i32, i32, ptr, ptr, ptr, ptr, ptr, i32, ptr, i64, i64, i32, i32, i32, i32, ptr, ptr }
%struct.Archive = type { ptr, ptr, i32, ptr, i32, i8, i32, i32, i32, ptr, i32, i8, ptr, ptr, i8, i32, ptr }
%struct.sqlparseInfo = type { i32, i8, ptr }
%struct.pg_compress_specification = type { i32, i32, i32, i32, i8, ptr }
%struct.lclContext = type { i32, i64, ptr, ptr, i64, i64, ptr, i32, ptr }
%struct._restoreOptions = type { i32, i32, i32, i32, i32, i32, ptr, ptr, i32, i32, i32, i32, i32, i32, i32, i32, i32, i32, ptr, i32, i32, i32, ptr, i32, i32, ptr, i32, ptr, i32, i32, i32, i32, i32, %struct.SimpleStringList, %struct.SimpleStringList, %struct.SimpleStringList, %struct.SimpleStringList, %struct.SimpleStringList, %struct.SimpleStringList, i32, %struct._connParams, i32, i32, %struct.pg_compress_specification, i32, i8, i32, ptr, i32, i32, i32, i8, i8 }
%struct.SimpleStringList = type { ptr, ptr }
%struct._connParams = type { ptr, ptr, ptr, ptr, i32, ptr }

@.str.8 = private unnamed_addr constant [8 x i8] c"toc.dat\00", align 1
@.str.30 = private unnamed_addr constant [35 x i8] c"could not write to output file: %m\00", align 1
@.str.43 = private unnamed_addr constant [12 x i8] c"restore.sql\00", align 1
@.str.44 = private unnamed_addr constant [161 x i8] c"--\0A-- NOTE:\0A--\0A-- File paths need to be edited. Search for $$PATH$$ and\0A-- replace it with the path to the directory containing\0A-- the extracted data files.\0A--\0A\00", align 1

; Function Attrs: nounwind uwtable
define internal void @_CloseArchive(ptr noundef %0) #0 {
  %2 = alloca ptr, align 8
  %3 = alloca ptr, align 8
  %4 = alloca ptr, align 8
  %5 = alloca ptr, align 8
  %6 = alloca ptr, align 8
  %7 = alloca ptr, align 8
  %8 = alloca i32, align 4
  %9 = alloca i32, align 4
  store ptr %0, ptr %2, align 8
  call void @llvm.lifetime.start.p0(i64 8, ptr %3) #12
  %10 = load ptr, ptr %2, align 8
  %11 = getelementptr inbounds nuw %struct._archiveHandle, ptr %10, i32 0, i32 63
  %12 = load ptr, ptr %11, align 8
  store ptr %12, ptr %3, align 8
  call void @llvm.lifetime.start.p0(i64 8, ptr %4) #12
  call void @llvm.lifetime.start.p0(i64 8, ptr %5) #12
  call void @llvm.lifetime.start.p0(i64 8, ptr %6) #12
  call void @llvm.lifetime.start.p0(i64 8, ptr %7) #12
  call void @llvm.lifetime.start.p0(i64 4, ptr %8) #12
  call void @llvm.lifetime.start.p0(i64 4, ptr %9) #12
  %13 = load ptr, ptr %2, align 8
  %14 = getelementptr inbounds nuw %struct._archiveHandle, ptr %13, i32 0, i32 62
  %15 = load i32, ptr %14, align 8
  %16 = icmp eq i32 %15, 1
  br i1 %16, label %17, label %118

17:                                               ; preds = %1
  %18 = load ptr, ptr %2, align 8
  %19 = call ptr @tarOpen(ptr noundef %18, ptr noundef @.str.8, i8 noundef signext 119)
  store ptr %19, ptr %4, align 8
  %20 = load ptr, ptr %4, align 8
  %21 = load ptr, ptr %3, align 8
  %22 = getelementptr inbounds nuw %struct.lclContext, ptr %21, i32 0, i32 6
  store ptr %20, ptr %22, align 8
  %23 = load ptr, ptr %2, align 8
  call void @WriteHead(ptr noundef %23)
  %24 = load ptr, ptr %2, align 8
  call void @WriteToc(ptr noundef %24)
  %25 = load ptr, ptr %2, align 8
  %26 = load ptr, ptr %4, align 8
  call void @tarClose(ptr noundef %25, ptr noundef %26)
  %27 = load ptr, ptr %2, align 8
  call void @WriteDataChunks(ptr noundef %27, ptr noundef null)
  %28 = load ptr, ptr %2, align 8
  %29 = call ptr @tarOpen(ptr noundef %28, ptr noundef @.str.43, i8 noundef signext 119)
  store ptr %29, ptr %4, align 8
  %30 = load ptr, ptr %4, align 8
  %31 = call i32 (ptr, ptr, ...) @tarPrintf(ptr noundef %30, ptr noundef @.str.44)
  %32 = load ptr, ptr %2, align 8
  %33 = getelementptr inbounds nuw %struct._archiveHandle, ptr %32, i32 0, i32 38
  store ptr @_scriptOut, ptr %33, align 8
  %34 = load ptr, ptr %3, align 8
  %35 = getelementptr inbounds nuw %struct.lclContext, ptr %34, i32 0, i32 7
  store i32 1, ptr %35, align 8
  %36 = load ptr, ptr %4, align 8
  %37 = load ptr, ptr %3, align 8
  %38 = getelementptr inbounds nuw %struct.lclContext, ptr %37, i32 0, i32 8
  store ptr %36, ptr %38, align 8
  %39 = call ptr @NewRestoreOptions()
  store ptr %39, ptr %5, align 8
  %40 = load ptr, ptr %5, align 8
  %41 = load ptr, ptr %2, align 8
  %42 = getelementptr inbounds nuw %struct._archiveHandle, ptr %41, i32 0, i32 0
  %43 = getelementptr inbounds nuw %struct.Archive, ptr %42, i32 0, i32 1
  %44 = load ptr, ptr %43, align 8
  call void @llvm.memcpy.p0.p0.i64(ptr align 8 %40, ptr align 8 %44, i64 400, i1 false)
  %45 = load ptr, ptr %5, align 8
  %46 = getelementptr inbounds nuw %struct._restoreOptions, ptr %45, i32 0, i32 18
  store ptr null, ptr %46, align 8
  %47 = load ptr, ptr %5, align 8
  %48 = getelementptr inbounds nuw %struct._restoreOptions, ptr %47, i32 0, i32 8
  store i32 1, ptr %48, align 8
  %49 = load ptr, ptr %5, align 8
  %50 = getelementptr inbounds nuw %struct._restoreOptions, ptr %49, i32 0, i32 6
  store ptr null, ptr %50, align 8
  %51 = load ptr, ptr %5, align 8
  %52 = getelementptr inbounds nuw %struct._restoreOptions, ptr %51, i32 0, i32 44
  store i32 1, ptr %52, align 8
  %53 = load ptr, ptr %2, align 8
  %54 = getelementptr inbounds nuw %struct._archiveHandle, ptr %53, i32 0, i32 0
  %55 = getelementptr inbounds nuw %struct.Archive, ptr %54, i32 0, i32 0
  %56 = load ptr, ptr %55, align 8
  store ptr %56, ptr %7, align 8
  %57 = load ptr, ptr %2, align 8
  %58 = getelementptr inbounds nuw %struct._archiveHandle, ptr %57, i32 0, i32 0
  %59 = getelementptr inbounds nuw %struct.Archive, ptr %58, i32 0, i32 1
  %60 = load ptr, ptr %59, align 8
  store ptr %60, ptr %6, align 8
  %61 = load ptr, ptr %2, align 8
  %62 = load ptr, ptr %5, align 8
  call void @SetArchiveOptions(ptr noundef %61, ptr noundef null, ptr noundef %62)
  %63 = load ptr, ptr %2, align 8
  %64 = getelementptr inbounds nuw %struct._archiveHandle, ptr %63, i32 0, i32 0
  %65 = getelementptr inbounds nuw %struct.Archive, ptr %64, i32 0, i32 2
  %66 = load i32, ptr %65, align 8
  store i32 %66, ptr %8, align 4
  %67 = load ptr, ptr %2, align 8
  %68 = getelementptr inbounds nuw %struct._archiveHandle, ptr %67, i32 0, i32 0
  %69 = getelementptr inbounds nuw %struct.Archive, ptr %68, i32 0, i32 2
  store i32 0, ptr %69, align 8
  %70 = load ptr, ptr %2, align 8
  call void @RestoreArchive(ptr noundef %70)
  %71 = load ptr, ptr %2, align 8
  %72 = load ptr, ptr %7, align 8
  %73 = load ptr, ptr %6, align 8
  call void @SetArchiveOptions(ptr noundef %71, ptr noundef %72, ptr noundef %73)
  %74 = load i32, ptr %8, align 4
  %75 = load ptr, ptr %2, align 8
  %76 = getelementptr inbounds nuw %struct._archiveHandle, ptr %75, i32 0, i32 0
  %77 = getelementptr inbounds nuw %struct.Archive, ptr %76, i32 0, i32 2
  store i32 %74, ptr %77, align 8
  %78 = load ptr, ptr %2, align 8
  %79 = load ptr, ptr %4, align 8
  call void @tarClose(ptr noundef %78, ptr noundef %79)
  %80 = load ptr, ptr %3, align 8
  %81 = getelementptr inbounds nuw %struct.lclContext, ptr %80, i32 0, i32 7
  store i32 0, ptr %81, align 8
  store i32 0, ptr %9, align 4
  br label %82

82:                                               ; preds = %99, %17
  %83 = load i32, ptr %9, align 4
  %84 = icmp slt i32 %83, 1024
  br i1 %84, label %85, label %102

85:                                               ; preds = %82
  %86 = load ptr, ptr %3, align 8
  %87 = getelementptr inbounds nuw %struct.lclContext, ptr %86, i32 0, i32 3
  %88 = load ptr, ptr %87, align 8
  %89 = call i32 @fputc(i32 noundef 0, ptr noundef %88)
  %90 = icmp eq i32 %89, -1
  br i1 %90, label %91, label %98

91:                                               ; preds = %85
  br label %92

92:                                               ; preds = %91
  br label %93

93:                                               ; preds = %92
  call void (i32, i32, ptr, ...) @pg_log_generic(i32 noundef 4, i32 noundef 0, ptr noundef @.str.30)
  call void @exit_nicely(i32 noundef 1) #14
  unreachable

94:                                               ; No predecessors!
  br label %95

95:                                               ; preds = %94
  br label %96

96:                                               ; preds = %95
  br label %97

97:                                               ; preds = %96
  br label %98

98:                                               ; preds = %97, %85
  br label %99

99:                                               ; preds = %98
  %100 = load i32, ptr %9, align 4
  %101 = add i32 %100, 1
  store i32 %101, ptr %9, align 4
  br label %82, !llvm.loop !4

102:                                              ; preds = %82
  %103 = load ptr, ptr %2, align 8
  %104 = getelementptr inbounds nuw %struct._archiveHandle, ptr %103, i32 0, i32 60
  %105 = load i8, ptr %104, align 8, !range !6, !noundef !7
  %106 = trunc i8 %105 to i1
  br i1 %106, label %107, label %117

107:                                              ; preds = %102
  %108 = load ptr, ptr %2, align 8
  %109 = getelementptr inbounds nuw %struct._archiveHandle, ptr %108, i32 0, i32 50
  %110 = load ptr, ptr %109, align 8
  %111 = icmp ne ptr %110, null
  br i1 %111, label %112, label %117

112:                                              ; preds = %107
  %113 = load ptr, ptr %2, align 8
  %114 = getelementptr inbounds nuw %struct._archiveHandle, ptr %113, i32 0, i32 50
  %115 = load ptr, ptr %114, align 8
  %116 = call i32 @fsync_fname(ptr noundef %115, i1 noundef zeroext false)
  br label %117

117:                                              ; preds = %112, %107, %102
  br label %118

118:                                              ; preds = %117, %1
  %119 = load ptr, ptr %2, align 8
  %120 = getelementptr inbounds nuw %struct._archiveHandle, ptr %119, i32 0, i32 51
  store ptr null, ptr %120, align 8
  call void @llvm.lifetime.end.p0(i64 4, ptr %9) #12
  call void @llvm.lifetime.end.p0(i64 4, ptr %8) #12
  call void @llvm.lifetime.end.p0(i64 8, ptr %7) #12
  call void @llvm.lifetime.end.p0(i64 8, ptr %6) #12
  call void @llvm.lifetime.end.p0(i64 8, ptr %5) #12
  call void @llvm.lifetime.end.p0(i64 8, ptr %4) #12
  call void @llvm.lifetime.end.p0(i64 8, ptr %3) #12
  ret void
}