; Function Attrs: nounwind uwtable
define internal void @_CloseArchive(ptr noundef %0) #0 {
  %2 = getelementptr inbounds nuw i8, ptr %0, i64 584
  %3 = load i32, ptr %2, align 8
  %4 = icmp eq i32 %3, 1
  br i1 %4, label %5, label %42

5:                                                ; preds = %1
  %6 = getelementptr inbounds nuw i8, ptr %0, i64 592
  %7 = load ptr, ptr %6, align 8
  %8 = tail call fastcc ptr @tarOpen(ptr noundef nonnull %0, ptr noundef nonnull @.str.8, i8 noundef signext 119)
  %9 = getelementptr inbounds nuw i8, ptr %7, i64 48
  store ptr %8, ptr %9, align 8
  tail call void @WriteHead(ptr noundef nonnull %0) #17
  tail call void @WriteToc(ptr noundef nonnull %0) #17
  tail call fastcc void @tarClose(ptr noundef nonnull %0, ptr noundef %8)
  tail call void @WriteDataChunks(ptr noundef nonnull %0, ptr noundef null) #17
  %10 = tail call fastcc ptr @tarOpen(ptr noundef nonnull %0, ptr noundef nonnull @.str.43, i8 noundef signext 119)
  tail call void (ptr, ptr, ...) @tarPrintf(ptr noundef %10, ptr noundef nonnull @.str.44)
  %11 = getelementptr inbounds nuw i8, ptr %0, i64 408
  store ptr @_scriptOut, ptr %11, align 8
  %12 = getelementptr inbounds nuw i8, ptr %7, i64 56
  store i32 1, ptr %12, align 8
  %13 = getelementptr inbounds nuw i8, ptr %7, i64 64
  store ptr %10, ptr %13, align 8
  %14 = tail call ptr @NewRestoreOptions() #17
  %15 = getelementptr inbounds nuw i8, ptr %0, i64 8
  %16 = load ptr, ptr %15, align 8
  tail call void @llvm.memcpy.p0.p0.i64(ptr noundef nonnull align 8 dereferenceable(400) %14, ptr noundef nonnull align 8 dereferenceable(400) %16, i64 400, i1 false)
  %17 = getelementptr inbounds nuw i8, ptr %14, i64 80
  store ptr null, ptr %17, align 8
  %18 = getelementptr inbounds nuw i8, ptr %14, i64 40
  store i32 1, ptr %18, align 8
  %19 = getelementptr inbounds nuw i8, ptr %14, i64 24
  store ptr null, ptr %19, align 8
  %20 = getelementptr inbounds nuw i8, ptr %14, i64 360
  store i32 1, ptr %20, align 8
  %21 = load ptr, ptr %0, align 8
  %22 = load ptr, ptr %15, align 8
  tail call void @SetArchiveOptions(ptr noundef nonnull %0, ptr noundef null, ptr noundef nonnull %14) #17
  %23 = getelementptr inbounds nuw i8, ptr %0, i64 16
  %24 = load i32, ptr %23, align 8
  store i32 0, ptr %23, align 8
  tail call void @RestoreArchive(ptr noundef nonnull %0) #17
  tail call void @SetArchiveOptions(ptr noundef nonnull %0, ptr noundef %21, ptr noundef %22) #17
  store i32 %24, ptr %23, align 8
  tail call fastcc void @tarClose(ptr noundef nonnull %0, ptr noundef %10)
  store i32 0, ptr %12, align 8
  %25 = getelementptr inbounds nuw i8, ptr %7, i64 24
  br label %28

26:                                               ; preds = %28
  %27 = add nuw nsw i32 %.044, 1
  %exitcond.not = icmp eq i32 %27, 1024
  br i1 %exitcond.not, label %33, label %28, !llvm.loop !4

28:                                               ; preds = %5, %26
  %.044 = phi i32 [ 0, %5 ], [ %27, %26 ]
  %29 = load ptr, ptr %25, align 8
  %30 = tail call i32 @fputc(i32 noundef 0, ptr noundef %29)
  %31 = icmp eq i32 %30, -1
  br i1 %31, label %32, label %26

32:                                               ; preds = %28
  tail call void (i32, i32, ptr, ...) @pg_log_generic(i32 noundef 4, i32 noundef 0, ptr noundef nonnull @.str.30) #17
  tail call void @exit_nicely(i32 noundef 1) #18
  unreachable

33:                                               ; preds = %26
  %34 = getelementptr inbounds nuw i8, ptr %0, i64 576
  %35 = load i8, ptr %34, align 8, !range !6, !noundef !7
  %36 = trunc nuw i8 %35 to i1
  br i1 %36, label %37, label %42

37:                                               ; preds = %33
  %38 = getelementptr inbounds nuw i8, ptr %0, i64 480
  %39 = load ptr, ptr %38, align 8
  %.not = icmp eq ptr %39, null
  br i1 %.not, label %42, label %40

40:                                               ; preds = %37
  %41 = tail call i32 @fsync_fname(ptr noundef nonnull %39, i1 noundef zeroext false) #17
  br label %42

42:                                               ; preds = %33, %37, %40, %1
  %43 = getelementptr inbounds nuw i8, ptr %0, i64 488
  store ptr null, ptr %43, align 8
  ret void
}